; Function Attrs: mustprogress uwtable
define dso_local void @_ZN4i18n12phonenumbers15PhoneNumberUtil9SetLoggerEPNS0_6LoggerE(ptr nocapture noundef nonnull align 8 dereferenceable(64) %0, ptr noundef %1) local_unnamed_addr #4 align 2 {
  %3 = getelementptr inbounds i8, ptr %0, i64 8
  %4 = load ptr, ptr %3, align 8
  store ptr %1, ptr %3, align 8
  %5 = icmp eq ptr %4, null
  br i1 %5, label %_ZN5boost10scoped_ptrIN4i18n12phonenumbers6LoggerEE5resetEPS3_.exit, label %6

6:                                                ; preds = %2
  %7 = load ptr, ptr %4, align 8
  %8 = getelementptr inbounds i8, ptr %7, i64 8
  %9 = load ptr, ptr %8, align 8
  tail call void %9(ptr noundef nonnull align 8 dereferenceable(12) %4) #26
  %.pre = load ptr, ptr %3, align 8
  br label %_ZN5boost10scoped_ptrIN4i18n12phonenumbers6LoggerEE5resetEPS3_.exit

_ZN5boost10scoped_ptrIN4i18n12phonenumbers6LoggerEE5resetEPS3_.exit: ; preds = %2, %6
  %10 = phi ptr [ %1, %2 ], [ %.pre, %6 ]
  store ptr %10, ptr @_ZN4i18n12phonenumbers6Logger5impl_E, align 8
  ret void
}